
CEP Receiver.elf:     file format elf32-avr

Sections:
Idx Name          Size      VMA       LMA       File off  Algn
  0 .data         00000006  00800100  0000020c  000002a0  2**0
                  CONTENTS, ALLOC, LOAD, DATA
  1 .text         0000020c  00000000  00000000  00000094  2**1
                  CONTENTS, ALLOC, LOAD, READONLY, CODE
  2 .bss          00000001  00800106  00800106  000002a6  2**0
                  ALLOC
  3 .comment      00000030  00000000  00000000  000002a6  2**0
                  CONTENTS, READONLY
  4 .note.gnu.avr.deviceinfo 0000003c  00000000  00000000  000002d8  2**2
                  CONTENTS, READONLY
  5 .debug_aranges 00000048  00000000  00000000  00000314  2**0
                  CONTENTS, READONLY, DEBUGGING
  6 .debug_info   00000912  00000000  00000000  0000035c  2**0
                  CONTENTS, READONLY, DEBUGGING
  7 .debug_abbrev 00000761  00000000  00000000  00000c6e  2**0
                  CONTENTS, READONLY, DEBUGGING
  8 .debug_line   000003dd  00000000  00000000  000013cf  2**0
                  CONTENTS, READONLY, DEBUGGING
  9 .debug_frame  00000084  00000000  00000000  000017ac  2**2
                  CONTENTS, READONLY, DEBUGGING
 10 .debug_str    0000047c  00000000  00000000  00001830  2**0
                  CONTENTS, READONLY, DEBUGGING
 11 .debug_loc    000000d4  00000000  00000000  00001cac  2**0
                  CONTENTS, READONLY, DEBUGGING
 12 .debug_ranges 00000038  00000000  00000000  00001d80  2**0
                  CONTENTS, READONLY, DEBUGGING

Disassembly of section .text:

00000000 <__vectors>:
   0:	0c 94 38 00 	jmp	0x70	; 0x70 <__ctors_end>
   4:	0c 94 55 00 	jmp	0xaa	; 0xaa <__bad_interrupt>
   8:	0c 94 55 00 	jmp	0xaa	; 0xaa <__bad_interrupt>
   c:	0c 94 55 00 	jmp	0xaa	; 0xaa <__bad_interrupt>
  10:	0c 94 55 00 	jmp	0xaa	; 0xaa <__bad_interrupt>
  14:	0c 94 55 00 	jmp	0xaa	; 0xaa <__bad_interrupt>
  18:	0c 94 55 00 	jmp	0xaa	; 0xaa <__bad_interrupt>
  1c:	0c 94 55 00 	jmp	0xaa	; 0xaa <__bad_interrupt>
  20:	0c 94 55 00 	jmp	0xaa	; 0xaa <__bad_interrupt>
  24:	0c 94 55 00 	jmp	0xaa	; 0xaa <__bad_interrupt>
  28:	0c 94 55 00 	jmp	0xaa	; 0xaa <__bad_interrupt>
  2c:	0c 94 55 00 	jmp	0xaa	; 0xaa <__bad_interrupt>
  30:	0c 94 55 00 	jmp	0xaa	; 0xaa <__bad_interrupt>
  34:	0c 94 55 00 	jmp	0xaa	; 0xaa <__bad_interrupt>
  38:	0c 94 55 00 	jmp	0xaa	; 0xaa <__bad_interrupt>
  3c:	0c 94 55 00 	jmp	0xaa	; 0xaa <__bad_interrupt>
  40:	0c 94 55 00 	jmp	0xaa	; 0xaa <__bad_interrupt>
  44:	0c 94 55 00 	jmp	0xaa	; 0xaa <__bad_interrupt>
  48:	0c 94 55 00 	jmp	0xaa	; 0xaa <__bad_interrupt>
  4c:	0c 94 55 00 	jmp	0xaa	; 0xaa <__bad_interrupt>
  50:	0c 94 55 00 	jmp	0xaa	; 0xaa <__bad_interrupt>
  54:	0c 94 55 00 	jmp	0xaa	; 0xaa <__bad_interrupt>
  58:	0c 94 55 00 	jmp	0xaa	; 0xaa <__bad_interrupt>
  5c:	0c 94 55 00 	jmp	0xaa	; 0xaa <__bad_interrupt>
  60:	0c 94 55 00 	jmp	0xaa	; 0xaa <__bad_interrupt>
  64:	0c 94 55 00 	jmp	0xaa	; 0xaa <__bad_interrupt>
  68:	0c 94 55 00 	jmp	0xaa	; 0xaa <__bad_interrupt>
  6c:	0c 94 55 00 	jmp	0xaa	; 0xaa <__bad_interrupt>

00000070 <__ctors_end>:
  70:	11 24       	eor	r1, r1
  72:	1f be       	out	0x3f, r1	; 63
  74:	cf ef       	ldi	r28, 0xFF	; 255
  76:	d4 e0       	ldi	r29, 0x04	; 4
  78:	de bf       	out	0x3e, r29	; 62
  7a:	cd bf       	out	0x3d, r28	; 61

0000007c <__do_copy_data>:
  7c:	11 e0       	ldi	r17, 0x01	; 1
  7e:	a0 e0       	ldi	r26, 0x00	; 0
  80:	b1 e0       	ldi	r27, 0x01	; 1
  82:	ec e0       	ldi	r30, 0x0C	; 12
  84:	f2 e0       	ldi	r31, 0x02	; 2
  86:	02 c0       	rjmp	.+4      	; 0x8c <__do_copy_data+0x10>
  88:	05 90       	lpm	r0, Z+
  8a:	0d 92       	st	X+, r0
  8c:	a6 30       	cpi	r26, 0x06	; 6
  8e:	b1 07       	cpc	r27, r17
  90:	d9 f7       	brne	.-10     	; 0x88 <__do_copy_data+0xc>

00000092 <__do_clear_bss>:
  92:	21 e0       	ldi	r18, 0x01	; 1
  94:	a6 e0       	ldi	r26, 0x06	; 6
  96:	b1 e0       	ldi	r27, 0x01	; 1
  98:	01 c0       	rjmp	.+2      	; 0x9c <.do_clear_bss_start>

0000009a <.do_clear_bss_loop>:
  9a:	1d 92       	st	X+, r1

0000009c <.do_clear_bss_start>:
  9c:	a7 30       	cpi	r26, 0x07	; 7
  9e:	b2 07       	cpc	r27, r18
  a0:	e1 f7       	brne	.-8      	; 0x9a <.do_clear_bss_loop>
  a2:	0e 94 8d 00 	call	0x11a	; 0x11a <main>
  a6:	0c 94 04 01 	jmp	0x208	; 0x208 <_exit>

000000aa <__bad_interrupt>:
  aa:	0c 94 00 00 	jmp	0	; 0x0 <__vectors>

000000ae <USART1_init>:
}


void USART1_init(void)
{
	DDRB |= (1<<PB3);  // set port B bit 3 as output for TXD1 of USART1
  ae:	87 b3       	in	r24, 0x17	; 23
  b0:	88 60       	ori	r24, 0x08	; 8
  b2:	87 bb       	out	0x17, r24	; 23
	DDRB &= ~(1<<PB2);  // set port B bit 2 as input for RXD1 of USART1
  b4:	87 b3       	in	r24, 0x17	; 23
  b6:	8b 7f       	andi	r24, 0xFB	; 251
  b8:	87 bb       	out	0x17, r24	; 23
	PORTB |= (1<<PB2);  // set port B bit 2 as high for RXD1 of USART1 (pull-up)
  ba:	88 b3       	in	r24, 0x18	; 24
  bc:	84 60       	ori	r24, 0x04	; 4
  be:	88 bb       	out	0x18, r24	; 24
	// int UBBRValue=25;
	UBRR1H=0x00;  // set baud rate
  c0:	1c be       	out	0x3c, r1	; 60
	UBRR1L=0x05;  // set baud rate
  c2:	85 e0       	ldi	r24, 0x05	; 5
  c4:	80 b9       	out	0x00, r24	; 0
	UCSR1C |= (1 << USBS1) | (3 << UCSZ10);  // 2-bit Stop Bits, 8-bit character size
  c6:	8c b7       	in	r24, 0x3c	; 60
  c8:	8e 60       	ori	r24, 0x0E	; 14
  ca:	8c bf       	out	0x3c, r24	; 60
	UCSR1B |= (1 << RXEN1) | (1 << TXEN1);  // enable recieving and transmition 
  cc:	81 b1       	in	r24, 0x01	; 1
  ce:	88 61       	ori	r24, 0x18	; 24
  d0:	81 b9       	out	0x01, r24	; 1
  d2:	08 95       	ret

000000d4 <timer0_fastpwm_init>:
}


void timer0_fastpwm_init(void)
{
	TCCR0 &= ~(1 << FOC0);  // set FOC0 as 0 (should be 0 for non-pwm mode according to datasheet)
  d4:	83 b7       	in	r24, 0x33	; 51
  d6:	8f 77       	andi	r24, 0x7F	; 127
  d8:	83 bf       	out	0x33, r24	; 51
	TCCR0 |= (1 << WGM00) | (1 << WGM01);  // Waveform Generation Mode => PWM
  da:	83 b7       	in	r24, 0x33	; 51
  dc:	88 64       	ori	r24, 0x48	; 72
  de:	83 bf       	out	0x33, r24	; 51
    TCCR0 |= (1 << COM01);  // Clear OC0 on Compare Match, set OC0 at TOP (non-inverting mode)
  e0:	83 b7       	in	r24, 0x33	; 51
  e2:	80 62       	ori	r24, 0x20	; 32
  e4:	83 bf       	out	0x33, r24	; 51
    TCCR0 |= (1 << CS01) | (1 << CS00);  // Clock Select => clk/64 (from prescaler)
  e6:	83 b7       	in	r24, 0x33	; 51
  e8:	83 60       	ori	r24, 0x03	; 3
  ea:	83 bf       	out	0x33, r24	; 51

	DDRB |= (1 << PB0);  // set PB0 as output for PWM (OC0)
  ec:	87 b3       	in	r24, 0x17	; 23
  ee:	81 60       	ori	r24, 0x01	; 1
  f0:	87 bb       	out	0x17, r24	; 23
  f2:	08 95       	ret

000000f4 <USART1_transmit>:
}

void USART1_transmit(char data)
{
	while (!(UCSR1A & (1 << UDRE1)));  // wait until UDRE is empty
  f4:	15 9b       	sbis	0x02, 5	; 2
  f6:	fe cf       	rjmp	.-4      	; 0xf4 <USART1_transmit>
	UDR1 = data;  // send data
  f8:	83 b9       	out	0x03, r24	; 3
  fa:	08 95       	ret

000000fc <USART1_receive>:
}


char USART1_receive(void)
{
	while (!(UCSR1A & (1 << RXC1)));  // wait until data is received completely
  fc:	17 9b       	sbis	0x02, 7	; 2
  fe:	fe cf       	rjmp	.-4      	; 0xfc <USART1_receive>
	return UDR1;  // return data
 100:	83 b1       	in	r24, 0x03	; 3
}
 102:	08 95       	ret

00000104 <set_servo_position>:


void set_servo_position(enum servo_states servo_state)
{
	// 22.5 value for neutral position, less than that for latch position, greater than that for unlatch position
	switch (servo_state)
 104:	88 23       	and	r24, r24
 106:	19 f0       	breq	.+6      	; 0x10e <set_servo_position+0xa>
 108:	81 30       	cpi	r24, 0x01	; 1
 10a:	21 f0       	breq	.+8      	; 0x114 <set_servo_position+0x10>
 10c:	08 95       	ret
	{
		case latch:
			OCR0 = 10;
 10e:	8a e0       	ldi	r24, 0x0A	; 10
 110:	81 bf       	out	0x31, r24	; 49
			break;
 112:	08 95       	ret
		case unlatch:
			OCR0 = 40;
 114:	88 e2       	ldi	r24, 0x28	; 40
 116:	81 bf       	out	0x31, r24	; 49
 118:	08 95       	ret

0000011a <main>:
char USART1_receive(void);
void set_servo_position(enum servo_states servo_state);


int main(void)
{
 11a:	cf 93       	push	r28
 11c:	df 93       	push	r29
 11e:	cd b7       	in	r28, 0x3d	; 61
 120:	de b7       	in	r29, 0x3e	; 62
 122:	2b 97       	sbiw	r28, 0x0b	; 11
 124:	0f b6       	in	r0, 0x3f	; 63
 126:	f8 94       	cli
 128:	de bf       	out	0x3e, r29	; 62
 12a:	0f be       	out	0x3f, r0	; 63
 12c:	cd bf       	out	0x3d, r28	; 61
	// initializations
	USART1_init();  // initialize USART1
 12e:	0e 94 57 00 	call	0xae	; 0xae <USART1_init>
	timer0_fastpwm_init();  // initialize timer / pwm
 132:	0e 94 6a 00 	call	0xd4	; 0xd4 <timer0_fastpwm_init>
	set_servo_position(latch);  // set servo to latch position
 136:	80 e0       	ldi	r24, 0x00	; 0
 138:	0e 94 82 00 	call	0x104	; 0x104 <set_servo_position>

	DDRD &= ~(1 << PD7);  // set port D pin 7 as input (for push button)
 13c:	81 b3       	in	r24, 0x11	; 17
 13e:	8f 77       	andi	r24, 0x7F	; 127
 140:	81 bb       	out	0x11, r24	; 17
		
	char password[PASSWORD_LENGTH + 1] = ""; // password received from other microcontroller
 142:	1a 82       	std	Y+2, r1	; 0x02
 144:	19 82       	std	Y+1, r1	; 0x01
 146:	fe 01       	movw	r30, r28
 148:	33 96       	adiw	r30, 0x03	; 3
 14a:	89 e0       	ldi	r24, 0x09	; 9
 14c:	df 01       	movw	r26, r30
 14e:	1d 92       	st	X+, r1
 150:	8a 95       	dec	r24
 152:	e9 f7       	brne	.-6      	; 0x14e <main+0x34>
	int chars_entered = 0;  // number of characters recieved
 154:	00 e0       	ldi	r16, 0x00	; 0
 156:	10 e0       	ldi	r17, 0x00	; 0
	while (2 + 2 == 4)
	{
	
		switch (CURRENT_STATE)
 158:	80 91 06 01 	lds	r24, 0x0106	; 0x800106 <__data_end>
 15c:	81 30       	cpi	r24, 0x01	; 1
 15e:	e1 f0       	breq	.+56     	; 0x198 <main+0x7e>
 160:	18 f0       	brcs	.+6      	; 0x168 <main+0x4e>
 162:	82 30       	cpi	r24, 0x02	; 2
 164:	21 f1       	breq	.+72     	; 0x1ae <main+0x94>
 166:	40 c0       	rjmp	.+128    	; 0x1e8 <main+0xce>
		{

			case locked:

				set_servo_position(latch);  // set servo to latch position
 168:	80 e0       	ldi	r24, 0x00	; 0
 16a:	0e 94 82 00 	call	0x104	; 0x104 <set_servo_position>
				
				// recieve password from other microcontroller
				while (chars_entered < PASSWORD_LENGTH)
 16e:	0d c0       	rjmp	.+26     	; 0x18a <main+0x70>
				{
					char received_char = USART1_receive();
 170:	0e 94 7e 00 	call	0xfc	; 0xfc <USART1_receive>
					if (received_char == '*')
 174:	8a 32       	cpi	r24, 0x2A	; 42
 176:	61 f0       	breq	.+24     	; 0x190 <main+0x76>
					{
						break;  // break while loop
					}
					password[chars_entered] = received_char;
 178:	e1 e0       	ldi	r30, 0x01	; 1
 17a:	f0 e0       	ldi	r31, 0x00	; 0
 17c:	ec 0f       	add	r30, r28
 17e:	fd 1f       	adc	r31, r29
 180:	e0 0f       	add	r30, r16
 182:	f1 1f       	adc	r31, r17
 184:	80 83       	st	Z, r24
					chars_entered++;
 186:	0f 5f       	subi	r16, 0xFF	; 255
 188:	1f 4f       	sbci	r17, 0xFF	; 255
			case locked:

				set_servo_position(latch);  // set servo to latch position
				
				// recieve password from other microcontroller
				while (chars_entered < PASSWORD_LENGTH)
 18a:	0a 30       	cpi	r16, 0x0A	; 10
 18c:	11 05       	cpc	r17, r1
 18e:	84 f3       	brlt	.-32     	; 0x170 <main+0x56>
					}
					password[chars_entered] = received_char;
					chars_entered++;
				}

				CURRENT_STATE = checking_password;
 190:	82 e0       	ldi	r24, 0x02	; 2
 192:	80 93 06 01 	sts	0x0106, r24	; 0x800106 <__data_end>
				break;  // break case locked
 196:	28 c0       	rjmp	.+80     	; 0x1e8 <main+0xce>

			case unlocked:
				set_servo_position(unlatch);  // set servo to unlatch 
 198:	81 e0       	ldi	r24, 0x01	; 1
 19a:	0e 94 82 00 	call	0x104	; 0x104 <set_servo_position>
				
				while (!(PIND & (1 << PD7)));  // wait for push button to be pressed (polling)
 19e:	87 9b       	sbis	0x10, 7	; 16
 1a0:	fe cf       	rjmp	.-4      	; 0x19e <main+0x84>

				USART1_transmit('L');  // signal other microcontroller that lock is latched
 1a2:	8c e4       	ldi	r24, 0x4C	; 76
 1a4:	0e 94 7a 00 	call	0xf4	; 0xf4 <USART1_transmit>

				CURRENT_STATE = locked;  // go to locked state
 1a8:	10 92 06 01 	sts	0x0106, r1	; 0x800106 <__data_end>
				break;  // break case unlocked
 1ac:	1d c0       	rjmp	.+58     	; 0x1e8 <main+0xce>

			case checking_password:
				if (strcmp(password, CORRECT_PASSWORD) == 0)
 1ae:	60 e0       	ldi	r22, 0x00	; 0
 1b0:	71 e0       	ldi	r23, 0x01	; 1
 1b2:	ce 01       	movw	r24, r28
 1b4:	01 96       	adiw	r24, 0x01	; 1
 1b6:	0e 94 fb 00 	call	0x1f6	; 0x1f6 <strcmp>
 1ba:	89 2b       	or	r24, r25
 1bc:	39 f4       	brne	.+14     	; 0x1cc <main+0xb2>
				{
					// send unlocked status to other microcontroller (correct password)
					USART1_transmit('1');
 1be:	81 e3       	ldi	r24, 0x31	; 49
 1c0:	0e 94 7a 00 	call	0xf4	; 0xf4 <USART1_transmit>
					CURRENT_STATE = unlocked;
 1c4:	81 e0       	ldi	r24, 0x01	; 1
 1c6:	80 93 06 01 	sts	0x0106, r24	; 0x800106 <__data_end>
 1ca:	05 c0       	rjmp	.+10     	; 0x1d6 <main+0xbc>
				}
				else
				{
					// send locked status to other microcontroller (incorrect password)
					USART1_transmit('0');
 1cc:	80 e3       	ldi	r24, 0x30	; 48
 1ce:	0e 94 7a 00 	call	0xf4	; 0xf4 <USART1_transmit>
					CURRENT_STATE = locked;
 1d2:	10 92 06 01 	sts	0x0106, r1	; 0x800106 <__data_end>
				}

				//  reset password and number of characters entered
				chars_entered = 0;
				memset(password, 0, PASSWORD_LENGTH);  // clear password array
 1d6:	fe 01       	movw	r30, r28
 1d8:	31 96       	adiw	r30, 0x01	; 1
 1da:	8a e0       	ldi	r24, 0x0A	; 10
 1dc:	df 01       	movw	r26, r30
 1de:	1d 92       	st	X+, r1
 1e0:	8a 95       	dec	r24
 1e2:	e9 f7       	brne	.-6      	; 0x1de <main+0xc4>
					USART1_transmit('0');
					CURRENT_STATE = locked;
				}

				//  reset password and number of characters entered
				chars_entered = 0;
 1e4:	00 e0       	ldi	r16, 0x00	; 0
 1e6:	10 e0       	ldi	r17, 0x00	; 0
	#else
		//round up by default
		__ticks_dc = (uint32_t)(ceil(fabs(__tmp)));
	#endif

	__builtin_avr_delay_cycles(__ticks_dc);
 1e8:	8f e4       	ldi	r24, 0x4F	; 79
 1ea:	93 ec       	ldi	r25, 0xC3	; 195
 1ec:	01 97       	sbiw	r24, 0x01	; 1
 1ee:	f1 f7       	brne	.-4      	; 0x1ec <main+0xd2>
 1f0:	00 c0       	rjmp	.+0      	; 0x1f2 <main+0xd8>
 1f2:	00 00       	nop
 1f4:	b1 cf       	rjmp	.-158    	; 0x158 <main+0x3e>

000001f6 <strcmp>:
 1f6:	fb 01       	movw	r30, r22
 1f8:	dc 01       	movw	r26, r24
 1fa:	8d 91       	ld	r24, X+
 1fc:	01 90       	ld	r0, Z+
 1fe:	80 19       	sub	r24, r0
 200:	01 10       	cpse	r0, r1
 202:	d9 f3       	breq	.-10     	; 0x1fa <strcmp+0x4>
 204:	99 0b       	sbc	r25, r25
 206:	08 95       	ret

00000208 <_exit>:
 208:	f8 94       	cli

0000020a <__stop_program>:
 20a:	ff cf       	rjmp	.-2      	; 0x20a <__stop_program>
